target datalayout = "e-m:e-p270:32:32-p271:32:32-p272:64:64-i64:64-i128:128-f80:128-n8:16:32:64-S128"
target triple = "x86_64-unknown-linux-gnu"

@boot_set_handler = internal global ptr null, align 8
@restore_boot_order.first = internal global i32 1, align 4
@error_abort = external global ptr, align 8

; Function Attrs: nounwind sspstrong uwtable
define dso_local void @restore_boot_order(ptr noundef %opaque) #0 {
entry:
  %opaque.addr = alloca ptr, align 8
  %normal_boot_order = alloca ptr, align 8
  store ptr %opaque, ptr %opaque.addr, align 8
  %0 = load ptr, ptr %opaque.addr, align 8
  store ptr %0, ptr %normal_boot_order, align 8
  %1 = load i32, ptr @restore_boot_order.first, align 4
  %tobool = icmp ne i32 %1, 0
  br i1 %tobool, label %if.then, label %if.end

if.then:                                          ; preds = %entry
  store i32 0, ptr @restore_boot_order.first, align 4
  br label %return

if.end:                                           ; preds = %entry
  %2 = load ptr, ptr @boot_set_handler, align 8
  %tobool1 = icmp ne ptr %2, null
  br i1 %tobool1, label %if.then2, label %if.end3

if.then2:                                         ; preds = %if.end
  %3 = load ptr, ptr %normal_boot_order, align 8
  call void @qemu_boot_set(ptr noundef %3, ptr noundef @error_abort)
  br label %if.end3

if.end3:                                          ; preds = %if.then2, %if.end
  %4 = load ptr, ptr %normal_boot_order, align 8
  call void @qemu_unregister_reset(ptr noundef @restore_boot_order, ptr noundef %4)
  %5 = load ptr, ptr %normal_boot_order, align 8
  call void @g_free(ptr noundef %5)
  br label %return

return:                                           ; preds = %if.end3, %if.then
  ret void
}