; Function Attrs: nounwind sspstrong uwtable
define dso_local void @restore_boot_order(ptr noundef %opaque) #1 {
entry:
  %.b = load i1, ptr @restore_boot_order.first, align 4
  br i1 %.b, label %if.end, label %if.then

if.then:                                          ; preds = %entry
  store i1 true, ptr @restore_boot_order.first, align 4
  br label %return

if.end:                                           ; preds = %entry
  %0 = load ptr, ptr @boot_set_handler, align 8
  %tobool1.not = icmp eq ptr %0, null
  br i1 %tobool1.not, label %if.end3, label %if.then2

if.then2:                                         ; preds = %if.end
  tail call void @qemu_boot_set(ptr noundef %opaque, ptr noundef nonnull @error_abort)
  br label %if.end3

if.end3:                                          ; preds = %if.then2, %if.end
  tail call void @qemu_unregister_reset(ptr noundef nonnull @restore_boot_order, ptr noundef %opaque) #11
  tail call void @g_free(ptr noundef %opaque) #11
  br label %return

return:                                           ; preds = %if.end3, %if.then
  ret void
}